; Function Attrs: nounwind uwtable
define noalias ptr @l_Array_forIn_x27Unsafe_loop___at_Lean_Meta_getFVarSetToGeneralize___spec__69___boxed(ptr noundef %0, ptr noundef %1, ptr noundef %2, ptr noundef %3, ptr noundef %4, ptr noundef %5, ptr noundef %6, ptr noundef %7, ptr noundef %8, ptr noundef %9, ptr noundef %10, ptr noundef %11, ptr noundef %12, ptr noundef %13, ptr noundef %14) local_unnamed_addr #0 {
  %16 = ptrtoint ptr %1 to i64
  %17 = lshr i64 %16, 1
  %18 = trunc i64 %17 to i8
  %19 = and i64 %16, 1
  %.not = icmp eq i64 %19, 0
  br i1 %.not, label %20, label %lean_dec.exit38

20:                                               ; preds = %15
  %21 = load i32, ptr %1, align 4, !tbaa !8
  %22 = icmp sgt i32 %21, 1
  br i1 %22, label %23, label %25, !prof !11

23:                                               ; preds = %20
  %24 = add nsw i32 %21, -1
  store i32 %24, ptr %1, align 4, !tbaa !8
  br label %lean_dec.exit38

25:                                               ; preds = %20
  %.not.i = icmp eq i32 %21, 0
  br i1 %.not.i, label %lean_dec.exit38, label %26

26:                                               ; preds = %25
  tail call void @lean_dec_ref_cold(ptr noundef nonnull %1) #4
  br label %lean_dec.exit38

lean_dec.exit38:                                  ; preds = %26, %25, %23, %15
  %27 = getelementptr i8, ptr %7, i64 8
  %.val59 = load i64, ptr %27, align 8, !tbaa !12
  %28 = ptrtoint ptr %7 to i64
  %29 = and i64 %28, 1
  %.not60 = icmp eq i64 %29, 0
  br i1 %.not60, label %30, label %lean_dec.exit37

30:                                               ; preds = %lean_dec.exit38
  %31 = load i32, ptr %7, align 4, !tbaa !8
  %32 = icmp sgt i32 %31, 1
  br i1 %32, label %33, label %35, !prof !11

33:                                               ; preds = %30
  %34 = add nsw i32 %31, -1
  store i32 %34, ptr %7, align 4, !tbaa !8
  br label %lean_dec.exit37

35:                                               ; preds = %30
  %.not.i39 = icmp eq i32 %31, 0
  br i1 %.not.i39, label %lean_dec.exit37, label %36

36:                                               ; preds = %35
  tail call void @lean_dec_ref_cold(ptr noundef nonnull %7) #4
  br label %lean_dec.exit37

lean_dec.exit37:                                  ; preds = %36, %35, %33, %lean_dec.exit38
  %37 = getelementptr i8, ptr %8, i64 8
  %.val = load i64, ptr %37, align 8, !tbaa !12
  %38 = ptrtoint ptr %8 to i64
  %39 = and i64 %38, 1
  %.not61 = icmp eq i64 %39, 0
  br i1 %.not61, label %40, label %lean_dec.exit36

40:                                               ; preds = %lean_dec.exit37
  %41 = load i32, ptr %8, align 4, !tbaa !8
  %42 = icmp sgt i32 %41, 1
  br i1 %42, label %43, label %45, !prof !11

43:                                               ; preds = %40
  %44 = add nsw i32 %41, -1
  store i32 %44, ptr %8, align 4, !tbaa !8
  br label %lean_dec.exit36

45:                                               ; preds = %40
  %.not.i41 = icmp eq i32 %41, 0
  br i1 %.not.i41, label %lean_dec.exit36, label %46

46:                                               ; preds = %45
  tail call void @lean_dec_ref_cold(ptr noundef nonnull %8) #4
  br label %lean_dec.exit36

lean_dec.exit36:                                  ; preds = %46, %45, %43, %lean_dec.exit37
  %47 = tail call ptr @l_Array_forIn_x27Unsafe_loop___at_Lean_Meta_getFVarSetToGeneralize___spec__69(ptr noundef %0, i8 noundef zeroext %18, ptr noundef %2, ptr poison, ptr poison, ptr noundef %5, ptr noundef %6, i64 noundef %.val59, i64 noundef %.val, ptr noundef %9, ptr poison, ptr noundef %11, ptr poison, ptr poison, ptr noundef %14)
  %48 = ptrtoint ptr %13 to i64
  %49 = and i64 %48, 1
  %.not62 = icmp eq i64 %49, 0
  br i1 %.not62, label %50, label %lean_dec.exit35

50:                                               ; preds = %lean_dec.exit36
  %51 = load i32, ptr %13, align 4, !tbaa !8
  %52 = icmp sgt i32 %51, 1
  br i1 %52, label %53, label %55, !prof !11

53:                                               ; preds = %50
  %54 = add nsw i32 %51, -1
  store i32 %54, ptr %13, align 4, !tbaa !8
  br label %lean_dec.exit35

55:                                               ; preds = %50
  %.not.i43 = icmp eq i32 %51, 0
  br i1 %.not.i43, label %lean_dec.exit35, label %56

56:                                               ; preds = %55
  tail call void @lean_dec_ref_cold(ptr noundef nonnull %13) #4
  br label %lean_dec.exit35

lean_dec.exit35:                                  ; preds = %56, %55, %53, %lean_dec.exit36
  %57 = ptrtoint ptr %12 to i64
  %58 = and i64 %57, 1
  %.not63 = icmp eq i64 %58, 0
  br i1 %.not63, label %59, label %lean_dec.exit34

59:                                               ; preds = %lean_dec.exit35
  %60 = load i32, ptr %12, align 4, !tbaa !8
  %61 = icmp sgt i32 %60, 1
  br i1 %61, label %62, label %64, !prof !11

62:                                               ; preds = %59
  %63 = add nsw i32 %60, -1
  store i32 %63, ptr %12, align 4, !tbaa !8
  br label %lean_dec.exit34

64:                                               ; preds = %59
  %.not.i45 = icmp eq i32 %60, 0
  br i1 %.not.i45, label %lean_dec.exit34, label %65

65:                                               ; preds = %64
  tail call void @lean_dec_ref_cold(ptr noundef nonnull %12) #4
  br label %lean_dec.exit34

lean_dec.exit34:                                  ; preds = %65, %64, %62, %lean_dec.exit35
  %66 = ptrtoint ptr %11 to i64
  %67 = and i64 %66, 1
  %.not64 = icmp eq i64 %67, 0
  br i1 %.not64, label %68, label %lean_dec.exit33

68:                                               ; preds = %lean_dec.exit34
  %69 = load i32, ptr %11, align 4, !tbaa !8
  %70 = icmp sgt i32 %69, 1
  br i1 %70, label %71, label %73, !prof !11

71:                                               ; preds = %68
  %72 = add nsw i32 %69, -1
  store i32 %72, ptr %11, align 4, !tbaa !8
  br label %lean_dec.exit33

73:                                               ; preds = %68
  %.not.i47 = icmp eq i32 %69, 0
  br i1 %.not.i47, label %lean_dec.exit33, label %74

74:                                               ; preds = %73
  tail call void @lean_dec_ref_cold(ptr noundef nonnull %11) #4
  br label %lean_dec.exit33

lean_dec.exit33:                                  ; preds = %74, %73, %71, %lean_dec.exit34
  %75 = ptrtoint ptr %10 to i64
  %76 = and i64 %75, 1
  %.not65 = icmp eq i64 %76, 0
  br i1 %.not65, label %77, label %lean_dec.exit32

77:                                               ; preds = %lean_dec.exit33
  %78 = load i32, ptr %10, align 4, !tbaa !8
  %79 = icmp sgt i32 %78, 1
  br i1 %79, label %80, label %82, !prof !11

80:                                               ; preds = %77
  %81 = add nsw i32 %78, -1
  store i32 %81, ptr %10, align 4, !tbaa !8
  br label %lean_dec.exit32

82:                                               ; preds = %77
  %.not.i49 = icmp eq i32 %78, 0
  br i1 %.not.i49, label %lean_dec.exit32, label %83

83:                                               ; preds = %82
  tail call void @lean_dec_ref_cold(ptr noundef nonnull %10) #4
  br label %lean_dec.exit32

lean_dec.exit32:                                  ; preds = %83, %82, %80, %lean_dec.exit33
  %84 = ptrtoint ptr %6 to i64
  %85 = and i64 %84, 1
  %.not66 = icmp eq i64 %85, 0
  br i1 %.not66, label %86, label %lean_dec.exit31

86:                                               ; preds = %lean_dec.exit32
  %87 = load i32, ptr %6, align 4, !tbaa !8
  %88 = icmp sgt i32 %87, 1
  br i1 %88, label %89, label %91, !prof !11

89:                                               ; preds = %86
  %90 = add nsw i32 %87, -1
  store i32 %90, ptr %6, align 4, !tbaa !8
  br label %lean_dec.exit31

91:                                               ; preds = %86
  %.not.i51 = icmp eq i32 %87, 0
  br i1 %.not.i51, label %lean_dec.exit31, label %92

92:                                               ; preds = %91
  tail call void @lean_dec_ref_cold(ptr noundef nonnull %6) #4
  br label %lean_dec.exit31

lean_dec.exit31:                                  ; preds = %92, %91, %89, %lean_dec.exit32
  %93 = ptrtoint ptr %4 to i64
  %94 = and i64 %93, 1
  %.not67 = icmp eq i64 %94, 0
  br i1 %.not67, label %95, label %lean_dec.exit30

95:                                               ; preds = %lean_dec.exit31
  %96 = load i32, ptr %4, align 4, !tbaa !8
  %97 = icmp sgt i32 %96, 1
  br i1 %97, label %98, label %100, !prof !11

98:                                               ; preds = %95
  %99 = add nsw i32 %96, -1
  store i32 %99, ptr %4, align 4, !tbaa !8
  br label %lean_dec.exit30

100:                                              ; preds = %95
  %.not.i53 = icmp eq i32 %96, 0
  br i1 %.not.i53, label %lean_dec.exit30, label %101

101:                                              ; preds = %100
  tail call void @lean_dec_ref_cold(ptr noundef nonnull %4) #4
  br label %lean_dec.exit30

lean_dec.exit30:                                  ; preds = %101, %100, %98, %lean_dec.exit31
  %102 = ptrtoint ptr %3 to i64
  %103 = and i64 %102, 1
  %.not68 = icmp eq i64 %103, 0
  br i1 %.not68, label %104, label %lean_dec.exit29

104:                                              ; preds = %lean_dec.exit30
  %105 = load i32, ptr %3, align 4, !tbaa !8
  %106 = icmp sgt i32 %105, 1
  br i1 %106, label %107, label %109, !prof !11

107:                                              ; preds = %104
  %108 = add nsw i32 %105, -1
  store i32 %108, ptr %3, align 4, !tbaa !8
  br label %lean_dec.exit29

109:                                              ; preds = %104
  %.not.i55 = icmp eq i32 %105, 0
  br i1 %.not.i55, label %lean_dec.exit29, label %110

110:                                              ; preds = %109
  tail call void @lean_dec_ref_cold(ptr noundef nonnull %3) #4
  br label %lean_dec.exit29

lean_dec.exit29:                                  ; preds = %110, %109, %107, %lean_dec.exit30
  %111 = ptrtoint ptr %0 to i64
  %112 = and i64 %111, 1
  %.not69 = icmp eq i64 %112, 0
  br i1 %.not69, label %113, label %lean_dec.exit

113:                                              ; preds = %lean_dec.exit29
  %114 = load i32, ptr %0, align 4, !tbaa !8
  %115 = icmp sgt i32 %114, 1
  br i1 %115, label %116, label %118, !prof !11

116:                                              ; preds = %113
  %117 = add nsw i32 %114, -1
  store i32 %117, ptr %0, align 4, !tbaa !8
  br label %lean_dec.exit

118:                                              ; preds = %113
  %.not.i57 = icmp eq i32 %114, 0
  br i1 %.not.i57, label %lean_dec.exit, label %119

119:                                              ; preds = %118
  tail call void @lean_dec_ref_cold(ptr noundef nonnull %0) #4
  br label %lean_dec.exit

lean_dec.exit:                                    ; preds = %119, %118, %116, %lean_dec.exit29
  ret ptr %47
}